target datalayout = "e-m:e-p270:32:32-p271:32:32-p272:64:64-i64:64-i128:128-f80:128-n8:16:32:64-S128"
target triple = "x86_64-pc-linux-gnu"

%"class.llvm::Triple" = type { %"class.std::__cxx11::basic_string", i32, i32, i32, i32, i32, i32 }
%"class.std::__cxx11::basic_string" = type { %"struct.std::__cxx11::basic_string<char>::_Alloc_hider", i64, %union.anon }
%"struct.std::__cxx11::basic_string<char>::_Alloc_hider" = type { ptr }
%union.anon = type { i64, [8 x i8] }

; Function Attrs: mustprogress nounwind uwtable
define linkonce_odr hidden noundef i32 @_ZNK4llvm6Triple7getArchEv(ptr noundef nonnull align 8 dereferenceable(56) %0) #0 comdat align 2 {
  %2 = alloca ptr, align 8
  store ptr %0, ptr %2, align 8
  %3 = load ptr, ptr %2, align 8
  %4 = getelementptr inbounds nuw %"class.llvm::Triple", ptr %3, i32 0, i32 1
  %5 = load i32, ptr %4, align 8
  ret i32 %5
}

; Function Attrs: mustprogress nounwind uwtable
define dso_local noundef zeroext i1 @_ZNK4llvm6Triple14isLittleEndianEv(ptr noundef nonnull align 8 dereferenceable(56) %0) #0 align 2 {
  %2 = alloca i1, align 1
  %3 = alloca ptr, align 8
  store ptr %0, ptr %3, align 8
  %4 = load ptr, ptr %3, align 8
  %5 = call noundef i32 @_ZNK4llvm6Triple7getArchEv(ptr noundef nonnull align 8 dereferenceable(56) %4)
  switch i32 %5, label %7 [
    i32 3, label %6
    i32 5, label %6
    i32 26, label %6
    i32 44, label %6
    i32 43, label %6
    i32 1, label %6
    i32 7, label %6
    i32 8, label %6
    i32 10, label %6
    i32 11, label %6
    i32 12, label %6
    i32 46, label %6
    i32 45, label %6
    i32 52, label %6
    i32 13, label %6
    i32 14, label %6
    i32 19, label %6
    i32 17, label %6
    i32 20, label %6
    i32 42, label %6
    i32 41, label %6
    i32 22, label %6
    i32 24, label %6
    i32 25, label %6
    i32 57, label %6
    i32 58, label %6
    i32 27, label %6
    i32 28, label %6
    i32 53, label %6
    i32 31, label %6
    i32 48, label %6
    i32 47, label %6
    i32 49, label %6
    i32 50, label %6
    i32 51, label %6
    i32 34, label %6
    i32 35, label %6
    i32 59, label %6
    i32 55, label %6
    i32 56, label %6
    i32 37, label %6
    i32 38, label %6
    i32 39, label %6
    i32 40, label %6
  ]

6:                                                ; preds = %1, %1, %1, %1, %1, %1, %1, %1, %1, %1, %1, %1, %1, %1, %1, %1, %1, %1, %1, %1, %1, %1, %1, %1, %1, %1, %1, %1, %1, %1, %1, %1, %1, %1, %1, %1, %1, %1, %1, %1, %1, %1, %1, %1
  store i1 true, ptr %2, align 1
  br label %8

7:                                                ; preds = %1
  store i1 false, ptr %2, align 1
  br label %8

8:                                                ; preds = %7, %6
  %9 = load i1, ptr %2, align 1
  ret i1 %9
}