; Function Attrs: mustprogress nofree norecurse nosync nounwind willreturn memory(argmem: read) uwtable
define dso_local noundef zeroext i1 @_ZNK4llvm6Triple14isLittleEndianEv(ptr nocapture noundef nonnull readonly align 8 dereferenceable(56) %0) local_unnamed_addr #7 align 2 {
  %2 = getelementptr inbounds nuw i8, ptr %0, i64 32
  %3 = load i32, ptr %2, align 8
  %4 = icmp ult i32 %3, 60
  %switch.cast = zext nneg i32 %3 to i60
  %switch.downshift = lshr i60 -18014481735320150, %switch.cast
  %switch.masked = trunc i60 %switch.downshift to i1
  %.0 = select i1 %4, i1 %switch.masked, i1 false
  ret i1 %.0
}